target datalayout = "e-m:e-p270:32:32-p271:32:32-p272:64:64-i64:64-i128:128-f80:128-n8:16:32:64-S128"
target triple = "x86_64-pc-linux-gnu"

%"class.std::__cxx11::basic_string" = type { %"struct.std::__cxx11::basic_string<char>::_Alloc_hider", i64, %union.anon }
%"struct.std::__cxx11::basic_string<char>::_Alloc_hider" = type { ptr }
%union.anon = type { i64, [8 x i8] }
%"class.std::__cxx11::basic_stringstream" = type { %"class.std::basic_iostream.base", %"class.std::__cxx11::basic_stringbuf", %"class.std::basic_ios" }
%"class.std::basic_iostream.base" = type { %"class.std::basic_istream.base", %"class.std::basic_ostream.base" }
%"class.std::basic_istream.base" = type { ptr, i64 }
%"class.std::basic_ostream.base" = type { ptr }
%"class.std::__cxx11::basic_stringbuf" = type { %"class.std::basic_streambuf", i32, %"class.std::__cxx11::basic_string" }
%"class.std::basic_streambuf" = type { ptr, ptr, ptr, ptr, ptr, ptr, ptr, %"class.std::locale" }
%"class.std::locale" = type { ptr }
%"class.std::basic_ios" = type { %"class.std::ios_base", ptr, i8, i8, ptr, ptr, ptr, ptr }
%"class.std::ios_base" = type { ptr, i64, i64, i32, i32, i32, ptr, %"struct.std::ios_base::_Words", [8 x %"struct.std::ios_base::_Words"], i32, ptr, %"class.std::locale" }
%"struct.std::ios_base::_Words" = type { ptr, i64 }

@cardSuit = external global [5 x i8], align 1
@.str.3 = private unnamed_addr constant [2 x i8] c" \00", align 1
@.str.4 = private unnamed_addr constant [2 x i8] c"\0A\00", align 1

; Function Attrs: mustprogress uwtable
define void @_Z13WinnersToTextB5cxx11PKt(ptr dead_on_unwind noalias writable sret(%"class.std::__cxx11::basic_string") align 8 %0, ptr noundef %1) #4 personality ptr @__gxx_personality_v0 {
  %3 = alloca ptr, align 8
  %4 = alloca ptr, align 8
  %5 = alloca %"class.std::__cxx11::basic_stringstream", align 8
  %6 = alloca i32, align 4
  %7 = alloca ptr, align 8
  %8 = alloca i32, align 4
  %9 = alloca %"class.std::__cxx11::basic_string", align 8
  store ptr %0, ptr %3, align 8
  store ptr %1, ptr %4, align 8
  call void @_ZNSt7__cxx1118basic_stringstreamIcSt11char_traitsIcESaIcEEC1Ev(ptr noundef nonnull align 8 dereferenceable(128) %5)
  store i32 0, ptr %6, align 4
  br label %10

10:                                               ; preds = %33, %2
  %11 = load i32, ptr %6, align 4
  %12 = icmp slt i32 %11, 4
  br i1 %12, label %13, label %44

13:                                               ; preds = %10
  %14 = getelementptr inbounds i8, ptr %5, i64 16
  %15 = load i32, ptr %6, align 4
  %16 = sext i32 %15 to i64
  %17 = getelementptr inbounds [5 x i8], ptr @cardSuit, i64 0, i64 %16
  %18 = load i8, ptr %17, align 1
  %19 = invoke noundef nonnull align 8 dereferenceable(8) ptr @_ZStlsISt11char_traitsIcEERSt13basic_ostreamIcT_ES5_h(ptr noundef nonnull align 8 dereferenceable(8) %14, i8 noundef zeroext %18)
          to label %20 unwind label %36

20:                                               ; preds = %13
  %21 = invoke noundef nonnull align 8 dereferenceable(8) ptr @_ZStlsISt11char_traitsIcEERSt13basic_ostreamIcT_ES5_PKc(ptr noundef nonnull align 8 dereferenceable(8) %19, ptr noundef @.str.3)
          to label %22 unwind label %36

22:                                               ; preds = %20
  %23 = load ptr, ptr %4, align 8
  %24 = load i32, ptr %6, align 4
  %25 = sext i32 %24 to i64
  %26 = getelementptr inbounds i16, ptr %23, i64 %25
  %27 = load i16, ptr %26, align 2
  invoke void @_Z9PrintSuitB5cxx11t(ptr dead_on_unwind writable sret(%"class.std::__cxx11::basic_string") align 8 %9, i16 noundef zeroext %27)
          to label %28 unwind label %36

28:                                               ; preds = %22
  %29 = invoke noundef nonnull align 8 dereferenceable(8) ptr @_ZStlsIcSt11char_traitsIcESaIcEERSt13basic_ostreamIT_T0_ES7_RKNSt7__cxx1112basic_stringIS4_S5_T1_EE(ptr noundef nonnull align 8 dereferenceable(8) %21, ptr noundef nonnull align 8 dereferenceable(32) %9)
          to label %30 unwind label %40

30:                                               ; preds = %28
  %31 = invoke noundef nonnull align 8 dereferenceable(8) ptr @_ZStlsISt11char_traitsIcEERSt13basic_ostreamIcT_ES5_PKc(ptr noundef nonnull align 8 dereferenceable(8) %29, ptr noundef @.str.4)
          to label %32 unwind label %40

32:                                               ; preds = %30
  call void @_ZNSt7__cxx1112basic_stringIcSt11char_traitsIcESaIcEED1Ev(ptr noundef nonnull align 8 dereferenceable(32) %9) #3
  br label %33

33:                                               ; preds = %32
  %34 = load i32, ptr %6, align 4
  %35 = add nsw i32 %34, 1
  store i32 %35, ptr %6, align 4
  br label %10, !llvm.loop !13

36:                                               ; preds = %44, %22, %20, %13
  %37 = landingpad { ptr, i32 }
          cleanup
  %38 = extractvalue { ptr, i32 } %37, 0
  store ptr %38, ptr %7, align 8
  %39 = extractvalue { ptr, i32 } %37, 1
  store i32 %39, ptr %8, align 4
  br label %46

40:                                               ; preds = %30, %28
  %41 = landingpad { ptr, i32 }
          cleanup
  %42 = extractvalue { ptr, i32 } %41, 0
  store ptr %42, ptr %7, align 8
  %43 = extractvalue { ptr, i32 } %41, 1
  store i32 %43, ptr %8, align 4
  call void @_ZNSt7__cxx1112basic_stringIcSt11char_traitsIcESaIcEED1Ev(ptr noundef nonnull align 8 dereferenceable(32) %9) #3
  br label %46

44:                                               ; preds = %10
  invoke void @_ZNKSt7__cxx1118basic_stringstreamIcSt11char_traitsIcESaIcEE3strEv(ptr dead_on_unwind writable sret(%"class.std::__cxx11::basic_string") align 8 %0, ptr noundef nonnull align 8 dereferenceable(128) %5)
          to label %45 unwind label %36

45:                                               ; preds = %44
  call void @_ZNSt7__cxx1118basic_stringstreamIcSt11char_traitsIcESaIcEED1Ev(ptr noundef nonnull align 8 dereferenceable(128) %5) #3
  ret void

46:                                               ; preds = %40, %36
  call void @_ZNSt7__cxx1118basic_stringstreamIcSt11char_traitsIcESaIcEED1Ev(ptr noundef nonnull align 8 dereferenceable(128) %5) #3
  br label %47

47:                                               ; preds = %46
  %48 = load ptr, ptr %7, align 8
  %49 = load i32, ptr %8, align 4
  %50 = insertvalue { ptr, i32 } poison, ptr %48, 0
  %51 = insertvalue { ptr, i32 } %50, i32 %49, 1
  resume { ptr, i32 } %51
}