; Function Attrs: mustprogress uwtable
define void @_Z13WinnersToTextB5cxx11PKt(ptr dead_on_unwind noalias writable sret(%"class.std::__cxx11::basic_string") align 8 %0, ptr noundef readonly captures(none) %1) local_unnamed_addr #3 personality ptr @__gxx_personality_v0 {
  %3 = alloca %"class.std::__cxx11::basic_stringstream", align 8
  %4 = alloca %"class.std::__cxx11::basic_string", align 8
  call void @_ZNSt7__cxx1118basic_stringstreamIcSt11char_traitsIcESaIcEEC1Ev(ptr noundef nonnull align 8 dereferenceable(128) %3)
  %5 = getelementptr inbounds nuw i8, ptr %3, i64 16
  br label %6

6:                                                ; preds = %2, %19
  %indvars.iv = phi i64 [ 0, %2 ], [ %indvars.iv.next, %19 ]
  %7 = getelementptr inbounds nuw [5 x i8], ptr @cardSuit, i64 0, i64 %indvars.iv
  %8 = load i8, ptr %7, align 1
  %9 = invoke noundef nonnull align 8 dereferenceable(8) ptr @_ZStlsISt11char_traitsIcEERSt13basic_ostreamIcT_ES5_h(ptr noundef nonnull align 8 dereferenceable(8) %5, i8 noundef zeroext %8)
          to label %10 unwind label %.loopexit

10:                                               ; preds = %6
  %11 = invoke noundef nonnull align 8 dereferenceable(8) ptr @_ZStlsISt11char_traitsIcEERSt13basic_ostreamIcT_ES5_PKc(ptr noundef nonnull align 8 dereferenceable(8) %9, ptr noundef nonnull @.str.3)
          to label %12 unwind label %.loopexit

12:                                               ; preds = %10
  %13 = getelementptr inbounds nuw i16, ptr %1, i64 %indvars.iv
  %14 = load i16, ptr %13, align 2
  invoke void @_Z9PrintSuitB5cxx11t(ptr dead_on_unwind nonnull writable sret(%"class.std::__cxx11::basic_string") align 8 %4, i16 noundef zeroext %14)
          to label %15 unwind label %.loopexit

15:                                               ; preds = %12
  %16 = invoke noundef nonnull align 8 dereferenceable(8) ptr @_ZStlsIcSt11char_traitsIcESaIcEERSt13basic_ostreamIT_T0_ES7_RKNSt7__cxx1112basic_stringIS4_S5_T1_EE(ptr noundef nonnull align 8 dereferenceable(8) %11, ptr noundef nonnull align 8 dereferenceable(32) %4)
          to label %17 unwind label %20

17:                                               ; preds = %15
  %18 = invoke noundef nonnull align 8 dereferenceable(8) ptr @_ZStlsISt11char_traitsIcEERSt13basic_ostreamIcT_ES5_PKc(ptr noundef nonnull align 8 dereferenceable(8) %16, ptr noundef nonnull @.str.4)
          to label %19 unwind label %20

19:                                               ; preds = %17
  call void @_ZNSt7__cxx1112basic_stringIcSt11char_traitsIcESaIcEED1Ev(ptr noundef nonnull align 8 dereferenceable(32) %4) #12
  %indvars.iv.next = add nuw nsw i64 %indvars.iv, 1
  %exitcond.not = icmp eq i64 %indvars.iv.next, 4
  br i1 %exitcond.not, label %22, label %6, !llvm.loop !13

.loopexit:                                        ; preds = %6, %10, %12
  %lpad.loopexit = landingpad { ptr, i32 }
          cleanup
  br label %24

.loopexit.split-lp:                               ; preds = %22
  %lpad.loopexit.split-lp = landingpad { ptr, i32 }
          cleanup
  br label %24

20:                                               ; preds = %17, %15
  %21 = landingpad { ptr, i32 }
          cleanup
  call void @_ZNSt7__cxx1112basic_stringIcSt11char_traitsIcESaIcEED1Ev(ptr noundef nonnull align 8 dereferenceable(32) %4) #12
  br label %24

22:                                               ; preds = %19
  invoke void @_ZNKSt7__cxx1118basic_stringstreamIcSt11char_traitsIcESaIcEE3strEv(ptr dead_on_unwind writable sret(%"class.std::__cxx11::basic_string") align 8 %0, ptr noundef nonnull align 8 dereferenceable(128) %3)
          to label %23 unwind label %.loopexit.split-lp

23:                                               ; preds = %22
  call void @_ZNSt7__cxx1118basic_stringstreamIcSt11char_traitsIcESaIcEED1Ev(ptr noundef nonnull align 8 dereferenceable(128) %3) #12
  ret void

24:                                               ; preds = %.loopexit, %.loopexit.split-lp, %20
  %.pn = phi { ptr, i32 } [ %21, %20 ], [ %lpad.loopexit, %.loopexit ], [ %lpad.loopexit.split-lp, %.loopexit.split-lp ]
  call void @_ZNSt7__cxx1118basic_stringstreamIcSt11char_traitsIcESaIcEED1Ev(ptr noundef nonnull align 8 dereferenceable(128) %3) #12
  resume { ptr, i32 } %.pn
}